; Function Attrs: mustprogress uwtable
define hidden void @_ZN3fmt3v117ostream4growERNS0_6detail6bufferIcEEm(ptr noundef nonnull align 8 captures(none) dereferenceable(32) %0, i64 %1) #5 align 2 {
  %3 = getelementptr inbounds nuw i8, ptr %0, i64 8
  %4 = load i64, ptr %3, align 8, !tbaa !18
  %5 = getelementptr inbounds nuw i8, ptr %0, i64 16
  %6 = load i64, ptr %5, align 8, !tbaa !17
  %7 = icmp ne i64 %4, %6
  %8 = icmp eq i64 %4, 0
  %or.cond = or i1 %8, %7
  br i1 %or.cond, label %_ZN3fmt3v117ostream5flushEv.exit, label %9

9:                                                ; preds = %2
  %10 = getelementptr inbounds nuw i8, ptr %0, i64 32
  %11 = load ptr, ptr %0, align 8, !tbaa !16
  %12 = tail call noundef i64 @_ZN3fmt3v114file5writeEPKvm(ptr noundef nonnull align 4 dereferenceable(4) %10, ptr noundef %11, i64 noundef %4)
  store i64 0, ptr %3, align 8, !tbaa !18
  br label %_ZN3fmt3v117ostream5flushEv.exit

_ZN3fmt3v117ostream5flushEv.exit:                 ; preds = %9, %2
  ret void
}